; Function Attrs: mustprogress nofree norecurse nosync nounwind willreturn memory(argmem: write) uwtable
define void @_ZN6Unpack13UnpInitData20Ei(ptr nocapture noundef nonnull writeonly align 8 dereferenceable(59688) %0, i32 noundef %1) local_unnamed_addr #1 align 2 {
  %.not = icmp eq i32 %1, 0
  br i1 %.not, label %3, label %11

3:                                                ; preds = %2
  %4 = getelementptr inbounds i8, ptr %0, i64 59500
  store i8 0, ptr %4, align 4
  %5 = getelementptr inbounds i8, ptr %0, i64 39048
  store i8 0, ptr %5, align 8
  %6 = getelementptr inbounds i8, ptr %0, i64 39060
  store i32 0, ptr %6, align 4
  %7 = getelementptr inbounds i8, ptr %0, i64 39056
  store i32 0, ptr %7, align 8
  %8 = getelementptr inbounds i8, ptr %0, i64 39052
  store i32 1, ptr %8, align 4
  %9 = getelementptr inbounds i8, ptr %0, i64 39064
  tail call void @llvm.memset.p0.i64(ptr noundef nonnull align 8 dereferenceable(368) %9, i8 0, i64 368, i1 false)
  %10 = getelementptr inbounds i8, ptr %0, i64 22740
  tail call void @llvm.memset.p0.i64(ptr noundef nonnull align 4 dereferenceable(16308) %10, i8 0, i64 16308, i1 false)
  br label %11

11:                                               ; preds = %3, %2
  ret void
}